target datalayout = "e-m:e-p270:32:32-p271:32:32-p272:64:64-i64:64-i128:128-f80:128-n8:16:32:64-S128"
target triple = "x86_64-pc-linux-gnu"

%struct.__jmp_buf_tag = type { [8 x i64], i32, %struct.__sigset_t }
%struct.__sigset_t = type { [16 x i64] }
%struct.WebPDecBuffer = type { i32, i32, i32, i32, %union.anon, [4 x i32], ptr }
%union.anon = type { %struct.WebPYUVABuffer }
%struct.WebPYUVABuffer = type { ptr, ptr, ptr, ptr, i32, i32, i32, i32, i64, i64, i64, i64 }
%struct.WebPRGBABuffer = type { ptr, i32, i64 }

@.str = private unnamed_addr constant [7 x i8] c"1.6.37\00", align 1

; Function Attrs: inlinehint nounwind uwtable
define internal i32 @WebPIsPremultipliedMode(i32 noundef %0) #5 {
  %2 = alloca i32, align 4
  store i32 %0, ptr %2, align 4, !tbaa !19
  %3 = load i32, ptr %2, align 4, !tbaa !19
  %4 = icmp eq i32 %3, 7
  br i1 %4, label %14, label %5

5:                                                ; preds = %1
  %6 = load i32, ptr %2, align 4, !tbaa !19
  %7 = icmp eq i32 %6, 8
  br i1 %7, label %14, label %8

8:                                                ; preds = %5
  %9 = load i32, ptr %2, align 4, !tbaa !19
  %10 = icmp eq i32 %9, 9
  br i1 %10, label %14, label %11

11:                                               ; preds = %8
  %12 = load i32, ptr %2, align 4, !tbaa !19
  %13 = icmp eq i32 %12, 10
  br label %14

14:                                               ; preds = %11, %8, %5, %1
  %15 = phi i1 [ true, %8 ], [ true, %5 ], [ true, %1 ], [ %13, %11 ]
  %16 = zext i1 %15 to i32
  ret i32 %16
}

; Function Attrs: inlinehint nounwind uwtable
define internal i32 @WebPIsAlphaMode(i32 noundef %0) #5 {
  %2 = alloca i32, align 4
  store i32 %0, ptr %2, align 4, !tbaa !19
  %3 = load i32, ptr %2, align 4, !tbaa !19
  %4 = icmp eq i32 %3, 1
  br i1 %4, label %21, label %5

5:                                                ; preds = %1
  %6 = load i32, ptr %2, align 4, !tbaa !19
  %7 = icmp eq i32 %6, 3
  br i1 %7, label %21, label %8

8:                                                ; preds = %5
  %9 = load i32, ptr %2, align 4, !tbaa !19
  %10 = icmp eq i32 %9, 4
  br i1 %10, label %21, label %11

11:                                               ; preds = %8
  %12 = load i32, ptr %2, align 4, !tbaa !19
  %13 = icmp eq i32 %12, 5
  br i1 %13, label %21, label %14

14:                                               ; preds = %11
  %15 = load i32, ptr %2, align 4, !tbaa !19
  %16 = icmp eq i32 %15, 12
  br i1 %16, label %21, label %17

17:                                               ; preds = %14
  %18 = load i32, ptr %2, align 4, !tbaa !19
  %19 = call i32 @WebPIsPremultipliedMode(i32 noundef %18)
  %20 = icmp ne i32 %19, 0
  br label %21

21:                                               ; preds = %17, %14, %11, %8, %5, %1
  %22 = phi i1 [ true, %14 ], [ true, %11 ], [ true, %8 ], [ true, %5 ], [ true, %1 ], [ %20, %17 ]
  %23 = zext i1 %22 to i32
  ret i32 %23
}

; Function Attrs: nounwind uwtable
define hidden i32 @WebPWritePNG(ptr noundef %0, ptr noundef %1) #0 {
  %3 = alloca i32, align 4
  %4 = alloca ptr, align 8
  %5 = alloca ptr, align 8
  %6 = alloca ptr, align 8
  %7 = alloca ptr, align 8
  %8 = alloca i32, align 4
  %9 = alloca i32, align 4
  %10 = alloca i32, align 4
  %11 = alloca ptr, align 8
  %12 = alloca i32, align 4
  %13 = alloca i32, align 4
  %14 = alloca i32, align 4
  store ptr %0, ptr %4, align 8, !tbaa !4
  store ptr %1, ptr %5, align 8, !tbaa !9
  call void @llvm.lifetime.start.p0(i64 8, ptr %6) #9
  call void @llvm.lifetime.start.p0(i64 8, ptr %7) #9
  %15 = load ptr, ptr %4, align 8, !tbaa !4
  %16 = icmp eq ptr %15, null
  br i1 %16, label %20, label %17

17:                                               ; preds = %2
  %18 = load ptr, ptr %5, align 8, !tbaa !9
  %19 = icmp eq ptr %18, null
  br i1 %19, label %20, label %21

20:                                               ; preds = %17, %2
  store i32 0, ptr %3, align 4
  store i32 1, ptr %8, align 4
  br label %85

21:                                               ; preds = %17
  %22 = call noalias ptr @png_create_write_struct(ptr noundef @.str, ptr noundef null, ptr noundef @PNGErrorFunction, ptr noundef null)
  store volatile ptr %22, ptr %6, align 8, !tbaa !11
  %23 = load volatile ptr, ptr %6, align 8, !tbaa !11
  %24 = icmp eq ptr %23, null
  br i1 %24, label %25, label %26

25:                                               ; preds = %21
  store i32 0, ptr %3, align 4
  store i32 1, ptr %8, align 4
  br label %85

26:                                               ; preds = %21
  %27 = load volatile ptr, ptr %6, align 8, !tbaa !11
  %28 = call noalias ptr @png_create_info_struct(ptr noundef %27)
  store volatile ptr %28, ptr %7, align 8, !tbaa !13
  %29 = load volatile ptr, ptr %7, align 8, !tbaa !13
  %30 = icmp eq ptr %29, null
  br i1 %30, label %31, label %32

31:                                               ; preds = %26
  call void @png_destroy_write_struct(ptr noundef %6, ptr noundef null)
  store i32 0, ptr %3, align 4
  store i32 1, ptr %8, align 4
  br label %85

32:                                               ; preds = %26
  %33 = load volatile ptr, ptr %6, align 8, !tbaa !11
  %34 = call ptr @png_set_longjmp_fn(ptr noundef %33, ptr noundef @longjmp, i64 noundef 200)
  %35 = getelementptr inbounds [1 x %struct.__jmp_buf_tag], ptr %34, i64 0, i64 0
  %36 = call i32 @_setjmp(ptr noundef %35) #10
  %37 = icmp ne i32 %36, 0
  br i1 %37, label %38, label %39

38:                                               ; preds = %32
  call void @png_destroy_write_struct(ptr noundef %6, ptr noundef %7)
  store i32 0, ptr %3, align 4
  store i32 1, ptr %8, align 4
  br label %85

39:                                               ; preds = %32
  %40 = load volatile ptr, ptr %6, align 8, !tbaa !11
  %41 = load ptr, ptr %4, align 8, !tbaa !4
  call void @png_init_io(ptr noundef %40, ptr noundef %41)
  call void @llvm.lifetime.start.p0(i64 4, ptr %9) #9
  %42 = load ptr, ptr %5, align 8, !tbaa !9
  %43 = getelementptr inbounds nuw %struct.WebPDecBuffer, ptr %42, i32 0, i32 1
  %44 = load i32, ptr %43, align 4, !tbaa !15
  store i32 %44, ptr %9, align 4, !tbaa !19
  call void @llvm.lifetime.start.p0(i64 4, ptr %10) #9
  %45 = load ptr, ptr %5, align 8, !tbaa !9
  %46 = getelementptr inbounds nuw %struct.WebPDecBuffer, ptr %45, i32 0, i32 2
  %47 = load i32, ptr %46, align 8, !tbaa !20
  store i32 %47, ptr %10, align 4, !tbaa !19
  call void @llvm.lifetime.start.p0(i64 8, ptr %11) #9
  %48 = load ptr, ptr %5, align 8, !tbaa !9
  %49 = getelementptr inbounds nuw %struct.WebPDecBuffer, ptr %48, i32 0, i32 4
  %50 = getelementptr inbounds nuw %struct.WebPRGBABuffer, ptr %49, i32 0, i32 0
  %51 = load ptr, ptr %50, align 8, !tbaa !21
  store ptr %51, ptr %11, align 8, !tbaa !22
  call void @llvm.lifetime.start.p0(i64 4, ptr %12) #9
  %52 = load ptr, ptr %5, align 8, !tbaa !9
  %53 = getelementptr inbounds nuw %struct.WebPDecBuffer, ptr %52, i32 0, i32 4
  %54 = getelementptr inbounds nuw %struct.WebPRGBABuffer, ptr %53, i32 0, i32 1
  %55 = load i32, ptr %54, align 8, !tbaa !21
  store i32 %55, ptr %12, align 4, !tbaa !19
  call void @llvm.lifetime.start.p0(i64 4, ptr %13) #9
  %56 = load ptr, ptr %5, align 8, !tbaa !9
  %57 = getelementptr inbounds nuw %struct.WebPDecBuffer, ptr %56, i32 0, i32 0
  %58 = load i32, ptr %57, align 8, !tbaa !23
  %59 = call i32 @WebPIsAlphaMode(i32 noundef %58)
  store i32 %59, ptr %13, align 4, !tbaa !19
  call void @llvm.lifetime.start.p0(i64 4, ptr %14) #9
  %60 = load volatile ptr, ptr %6, align 8, !tbaa !11
  %61 = load volatile ptr, ptr %7, align 8, !tbaa !13
  %62 = load i32, ptr %9, align 4, !tbaa !19
  %63 = load i32, ptr %10, align 4, !tbaa !19
  %64 = load i32, ptr %13, align 4, !tbaa !19
  %65 = icmp ne i32 %64, 0
  %66 = select i1 %65, i32 6, i32 2
  call void @png_set_IHDR(ptr noundef %60, ptr noundef %61, i32 noundef %62, i32 noundef %63, i32 noundef 8, i32 noundef %66, i32 noundef 0, i32 noundef 0, i32 noundef 0)
  %67 = load volatile ptr, ptr %6, align 8, !tbaa !11
  %68 = load volatile ptr, ptr %7, align 8, !tbaa !13
  call void @png_write_info(ptr noundef %67, ptr noundef %68)
  store i32 0, ptr %14, align 4, !tbaa !19
  br label %69

69:                                               ; preds = %79, %39
  %70 = load i32, ptr %14, align 4, !tbaa !19
  %71 = load i32, ptr %10, align 4, !tbaa !19
  %72 = icmp ult i32 %70, %71
  br i1 %72, label %73, label %82

73:                                               ; preds = %69
  %74 = load volatile ptr, ptr %6, align 8, !tbaa !11
  call void @png_write_rows(ptr noundef %74, ptr noundef %11, i32 noundef 1)
  %75 = load i32, ptr %12, align 4, !tbaa !19
  %76 = load ptr, ptr %11, align 8, !tbaa !22
  %77 = sext i32 %75 to i64
  %78 = getelementptr inbounds i8, ptr %76, i64 %77
  store ptr %78, ptr %11, align 8, !tbaa !22
  br label %79

79:                                               ; preds = %73
  %80 = load i32, ptr %14, align 4, !tbaa !19
  %81 = add i32 %80, 1
  store i32 %81, ptr %14, align 4, !tbaa !19
  br label %69, !llvm.loop !24

82:                                               ; preds = %69
  call void @llvm.lifetime.end.p0(i64 4, ptr %14) #9
  call void @llvm.lifetime.end.p0(i64 4, ptr %13) #9
  call void @llvm.lifetime.end.p0(i64 4, ptr %12) #9
  call void @llvm.lifetime.end.p0(i64 8, ptr %11) #9
  call void @llvm.lifetime.end.p0(i64 4, ptr %10) #9
  call void @llvm.lifetime.end.p0(i64 4, ptr %9) #9
  %83 = load volatile ptr, ptr %6, align 8, !tbaa !11
  %84 = load volatile ptr, ptr %7, align 8, !tbaa !13
  call void @png_write_end(ptr noundef %83, ptr noundef %84)
  call void @png_destroy_write_struct(ptr noundef %6, ptr noundef %7)
  store i32 1, ptr %3, align 4
  store i32 1, ptr %8, align 4
  br label %85

85:                                               ; preds = %82, %38, %31, %25, %20
  call void @llvm.lifetime.end.p0(i64 8, ptr %7) #9
  call void @llvm.lifetime.end.p0(i64 8, ptr %6) #9
  %86 = load i32, ptr %3, align 4
  ret i32 %86
}